target datalayout = "e-m:e-p270:32:32-p271:32:32-p272:64:64-i64:64-i128:128-f80:128-n8:16:32:64-S128"
target triple = "x86_64-pc-linux-gnu"

%struct.asn1_pctx_st = type { i64, i64, i64, i64, i64 }
%struct.ASN1_ITEM_st = type { i8, i64, ptr, i64, ptr, i64, ptr }

@default_pctx = internal global %struct.asn1_pctx_st { i64 1, i64 0, i64 0, i64 0, i64 0 }, align 8

; Function Attrs: nounwind uwtable
define hidden i32 @ASN1_item_print(ptr noundef %0, ptr noundef %1, i32 noundef %2, ptr noundef %3, ptr noundef %4) #0 {
  %6 = alloca ptr, align 8
  %7 = alloca ptr, align 8
  %8 = alloca i32, align 4
  %9 = alloca ptr, align 8
  %10 = alloca ptr, align 8
  %11 = alloca ptr, align 8
  store ptr %0, ptr %6, align 8, !tbaa !19
  store ptr %1, ptr %7, align 8, !tbaa !21
  store i32 %2, ptr %8, align 4, !tbaa !23
  store ptr %3, ptr %9, align 8, !tbaa !25
  store ptr %4, ptr %10, align 8, !tbaa !6
  call void @llvm.lifetime.start.p0(i64 8, ptr %11) #5
  %12 = load ptr, ptr %10, align 8, !tbaa !6
  %13 = icmp eq ptr %12, null
  br i1 %13, label %14, label %15

14:                                               ; preds = %5
  store ptr @default_pctx, ptr %10, align 8, !tbaa !6
  br label %15

15:                                               ; preds = %14, %5
  %16 = load ptr, ptr %10, align 8, !tbaa !6
  %17 = getelementptr inbounds nuw %struct.asn1_pctx_st, ptr %16, i32 0, i32 0
  %18 = load i64, ptr %17, align 8, !tbaa !11
  %19 = and i64 %18, 256
  %20 = icmp ne i64 %19, 0
  br i1 %20, label %21, label %22

21:                                               ; preds = %15
  store ptr null, ptr %11, align 8, !tbaa !27
  br label %26

22:                                               ; preds = %15
  %23 = load ptr, ptr %9, align 8, !tbaa !25
  %24 = getelementptr inbounds nuw %struct.ASN1_ITEM_st, ptr %23, i32 0, i32 6
  %25 = load ptr, ptr %24, align 8, !tbaa !29
  store ptr %25, ptr %11, align 8, !tbaa !27
  br label %26

26:                                               ; preds = %22, %21
  %27 = load ptr, ptr %6, align 8, !tbaa !19
  %28 = load i32, ptr %8, align 4, !tbaa !23
  %29 = load ptr, ptr %9, align 8, !tbaa !25
  %30 = load ptr, ptr %11, align 8, !tbaa !27
  %31 = load ptr, ptr %10, align 8, !tbaa !6
  %32 = call i32 @asn1_item_print_ctx(ptr noundef %27, ptr noundef %7, i32 noundef %28, ptr noundef %29, ptr noundef null, ptr noundef %30, i32 noundef 0, ptr noundef %31)
  call void @llvm.lifetime.end.p0(i64 8, ptr %11) #5
  ret i32 %32
}